target datalayout = "e-m:e-p270:32:32-p271:32:32-p272:64:64-i64:64-i128:128-f80:128-n8:16:32:64-S128"
target triple = "x86_64-pc-linux-gnu"

%struct._stat_tap_ui = type { i32, ptr, ptr, ptr, i64, ptr }
%struct._stat_tap_table_ui = type { i32, ptr, ptr, ptr, ptr, ptr, ptr, ptr, ptr, i64, ptr, i64, ptr, ptr, i32 }

; Function Attrs: null_pointer_is_valid sspstrong uwtable
define hidden zeroext i1 @register_simple_stat_tables(ptr noundef %0, ptr noundef %1, ptr noundef %2) #0 {
  %4 = alloca ptr, align 8
  %5 = alloca ptr, align 8
  %6 = alloca ptr, align 8
  %7 = alloca ptr, align 8
  %8 = alloca %struct._stat_tap_ui, align 8
  store ptr %0, ptr %4, align 8
  store ptr %1, ptr %5, align 8
  store ptr %2, ptr %6, align 8
  call void @llvm.lifetime.start.p0(i64 8, ptr %7) #7
  %9 = load ptr, ptr %5, align 8
  store ptr %9, ptr %7, align 8
  call void @llvm.lifetime.start.p0(i64 48, ptr %8) #7
  %10 = load ptr, ptr %7, align 8
  %11 = getelementptr inbounds nuw %struct._stat_tap_table_ui, ptr %10, i32 0, i32 0
  %12 = load i32, ptr %11, align 8
  %13 = getelementptr inbounds nuw %struct._stat_tap_ui, ptr %8, i32 0, i32 0
  store i32 %12, ptr %13, align 8
  %14 = load ptr, ptr %7, align 8
  %15 = getelementptr inbounds nuw %struct._stat_tap_table_ui, ptr %14, i32 0, i32 1
  %16 = load ptr, ptr %15, align 8
  %17 = getelementptr inbounds nuw %struct._stat_tap_ui, ptr %8, i32 0, i32 1
  store ptr %16, ptr %17, align 8
  %18 = load ptr, ptr %4, align 8
  %19 = getelementptr inbounds nuw %struct._stat_tap_ui, ptr %8, i32 0, i32 2
  store ptr %18, ptr %19, align 8
  %20 = getelementptr inbounds nuw %struct._stat_tap_ui, ptr %8, i32 0, i32 3
  store ptr @simple_stat_init, ptr %20, align 8
  %21 = load ptr, ptr %7, align 8
  %22 = getelementptr inbounds nuw %struct._stat_tap_table_ui, ptr %21, i32 0, i32 11
  %23 = load i64, ptr %22, align 8
  %24 = getelementptr inbounds nuw %struct._stat_tap_ui, ptr %8, i32 0, i32 4
  store i64 %23, ptr %24, align 8
  %25 = load ptr, ptr %7, align 8
  %26 = getelementptr inbounds nuw %struct._stat_tap_table_ui, ptr %25, i32 0, i32 12
  %27 = load ptr, ptr %26, align 8
  %28 = getelementptr inbounds nuw %struct._stat_tap_ui, ptr %8, i32 0, i32 5
  store ptr %27, ptr %28, align 8
  %29 = load ptr, ptr %7, align 8
  call void @register_stat_tap_ui(ptr noundef %8, ptr noundef %29)
  call void @llvm.lifetime.end.p0(i64 48, ptr %8) #7
  call void @llvm.lifetime.end.p0(i64 8, ptr %7) #7
  ret i1 false
}