; Function Attrs: null_pointer_is_valid sspstrong uwtable
define hidden noundef zeroext i1 @register_simple_stat_tables(ptr noundef %0, ptr noundef %1, ptr noundef readnone captures(none) %2) local_unnamed_addr #0 {
  %4 = alloca %struct._stat_tap_ui, align 8
  call void @llvm.lifetime.start.p0(i64 48, ptr nonnull %4) #6
  %5 = load i32, ptr %1, align 8
  store i32 %5, ptr %4, align 8
  %6 = getelementptr inbounds nuw i8, ptr %1, i64 8
  %7 = load ptr, ptr %6, align 8
  %8 = getelementptr inbounds nuw i8, ptr %4, i64 8
  store ptr %7, ptr %8, align 8
  %9 = getelementptr inbounds nuw i8, ptr %4, i64 16
  store ptr %0, ptr %9, align 8
  %10 = getelementptr inbounds nuw i8, ptr %4, i64 24
  store ptr @simple_stat_init, ptr %10, align 8
  %11 = getelementptr inbounds nuw i8, ptr %1, i64 88
  %12 = load i64, ptr %11, align 8
  %13 = getelementptr inbounds nuw i8, ptr %4, i64 32
  store i64 %12, ptr %13, align 8
  %14 = getelementptr inbounds nuw i8, ptr %1, i64 96
  %15 = load ptr, ptr %14, align 8
  %16 = getelementptr inbounds nuw i8, ptr %4, i64 40
  store ptr %15, ptr %16, align 8
  call void @register_stat_tap_ui(ptr noundef nonnull %4, ptr noundef %1)
  call void @llvm.lifetime.end.p0(i64 48, ptr nonnull %4) #6
  ret i1 false
}